(dp1
S'45_14822'
p2
(lp3
(dp4
S'name'
p5
S'fried fish'
p6
sS'bbox'
p7
(lp8
I266
aI178
aI638
aI448
asS'difficult'
p9
I0
sasS'216_272672'
p10
(lp11
(dp12
g5
S'loco moco'
p13
sg7
(lp14
I25
aI37
aI475
aI458
asg9
I0
sasS'96_12813'
p15
(lp16
(dp17
g5
S'dipping noodles'
p18
sg7
(lp19
I3
aI70
aI480
aI290
asg9
I0
sasS'171_113173'
p20
(lp21
(dp22
g5
S'moon cake'
p23
sg7
(lp24
I56
aI6
aI465
aI363
asg9
I0
sasS'174_159083'
p25
(lp26
(dp27
g5
S'pork cutlet'
p28
sg7
(lp29
I28
aI28
aI568
aI390
asg9
I0
sas.